; Function Attrs: mustprogress uwtable
define hidden void @_ZN4cvc58internal6theory25DecisionStrategySingleton9mkLiteralEj(ptr noalias nocapture writeonly sret(%"class.cvc5::internal::NodeTemplate") align 8 %agg.result, ptr nocapture noundef nonnull readonly align 8 dereferenceable(184) %this, i32 noundef %n) unnamed_addr #3 align 2 {
entry:
  %cmp = icmp eq i32 %n, 0
  br i1 %cmp, label %if.then, label %if.end

if.then:                                          ; preds = %entry
  %d_literal = getelementptr inbounds i8, ptr %this, i64 176
  %0 = load ptr, ptr %d_literal, align 8
  store ptr %0, ptr %agg.result, align 8
  %bf.load.i.i = load i64, ptr %0, align 8
  %bf.lshr.i.i = lshr i64 %bf.load.i.i, 40
  %1 = trunc i64 %bf.lshr.i.i to i32
  %bf.cast.i.i = and i32 %1, 1048575
  %cmp.i.i = icmp ult i32 %bf.cast.i.i, 1048574
  br i1 %cmp.i.i, label %if.then.i.i, label %if.else.i.i

if.then.i.i:                                      ; preds = %if.then
  %bf.value.i.i = add i64 %bf.load.i.i, 1099511627776
  %bf.shl.i.i = and i64 %bf.value.i.i, 1152920405095219200
  %bf.clear7.i.i = and i64 %bf.load.i.i, -1152920405095219201
  %bf.set.i.i = or disjoint i64 %bf.shl.i.i, %bf.clear7.i.i
  store i64 %bf.set.i.i, ptr %0, align 8
  br label %return

if.else.i.i:                                      ; preds = %if.then
  %cmp12.i.i = icmp eq i32 %bf.cast.i.i, 1048574
  br i1 %cmp12.i.i, label %if.then13.i.i, label %return

if.then13.i.i:                                    ; preds = %if.else.i.i
  %bf.set23.i.i = or i64 %bf.load.i.i, 1152920405095219200
  store i64 %bf.set23.i.i, ptr %0, align 8
  tail call void @_ZN4cvc58internal4expr9NodeValue20markRefCountMaxedOutEv(ptr noundef nonnull align 8 dereferenceable(16) %0)
  br label %return

if.end:                                           ; preds = %entry
  tail call void @llvm.experimental.noalias.scope.decl(metadata !18)
  %2 = load ptr, ptr @_ZN4cvc58internal12NodeTemplateILb1EE6s_nullE, align 8, !noalias !18
  store ptr %2, ptr %agg.result, align 8, !alias.scope !18
  %bf.load.i.i.i = load i64, ptr %2, align 8, !noalias !18
  %bf.lshr.i.i.i = lshr i64 %bf.load.i.i.i, 40
  %3 = trunc i64 %bf.lshr.i.i.i to i32
  %bf.cast.i.i.i = and i32 %3, 1048575
  %cmp.i.i.i = icmp ult i32 %bf.cast.i.i.i, 1048574
  br i1 %cmp.i.i.i, label %if.then.i.i.i, label %if.else.i.i.i

if.then.i.i.i:                                    ; preds = %if.end
  %bf.value.i.i.i = add i64 %bf.load.i.i.i, 1099511627776
  %bf.shl.i.i.i = and i64 %bf.value.i.i.i, 1152920405095219200
  %bf.clear7.i.i.i = and i64 %bf.load.i.i.i, -1152920405095219201
  %bf.set.i.i.i = or disjoint i64 %bf.shl.i.i.i, %bf.clear7.i.i.i
  store i64 %bf.set.i.i.i, ptr %2, align 8, !noalias !18
  br label %return

if.else.i.i.i:                                    ; preds = %if.end
  %cmp12.i.i.i = icmp eq i32 %bf.cast.i.i.i, 1048574
  br i1 %cmp12.i.i.i, label %if.then13.i.i.i, label %return

if.then13.i.i.i:                                  ; preds = %if.else.i.i.i
  %bf.set23.i.i.i = or i64 %bf.load.i.i.i, 1152920405095219200
  store i64 %bf.set23.i.i.i, ptr %2, align 8, !noalias !18
  tail call void @_ZN4cvc58internal4expr9NodeValue20markRefCountMaxedOutEv(ptr noundef nonnull align 8 dereferenceable(16) %2), !noalias !18
  br label %return

return:                                           ; preds = %if.then13.i.i.i, %if.else.i.i.i, %if.then.i.i.i, %if.then13.i.i, %if.else.i.i, %if.then.i.i
  ret void
}